; ModuleID = '45/2613.c'
source_filename = "45/2613.c"
target datalayout = "e-m:e-p270:32:32-p271:32:32-p272:64:64-i64:64-f80:128-n8:16:32:64-S128"
target triple = "x86_64-pc-linux-gnu"

@.str = private unnamed_addr constant [5 x i8] c"%s%s\00", align 1
@.str.1 = private unnamed_addr constant [3 x i8] c"%d\00", align 1

; Function Attrs: noinline nounwind uwtable
define dso_local i32 @main(i32 %0, i8** %1) #0 {
  %3 = alloca i32, align 4
  %4 = alloca i32, align 4
  %5 = alloca i8**, align 8
  %6 = alloca [50 x i8], align 16
  %7 = alloca [50 x i8], align 16
  %8 = alloca i8*, align 8
  store i32 0, i32* %3, align 4
  store i32 %0, i32* %4, align 4
  store i8** %1, i8*** %5, align 8
  %9 = getelementptr inbounds [50 x i8], [50 x i8]* %6, i64 0, i64 0
  %10 = getelementptr inbounds [50 x i8], [50 x i8]* %7, i64 0, i64 0
  %11 = call i32 (i8*, ...) @__isoc99_scanf(i8* getelementptr inbounds ([5 x i8], [5 x i8]* @.str, i64 0, i64 0), i8* %9, i8* %10)
  %12 = getelementptr inbounds [50 x i8], [50 x i8]* %7, i64 0, i64 0
  %13 = getelementptr inbounds [50 x i8], [50 x i8]* %6, i64 0, i64 0
  %14 = call i8* @strstr(i8* %12, i8* %13) #3
  store i8* %14, i8** %8, align 8
  %15 = load i8*, i8** %8, align 8
  %16 = getelementptr inbounds [50 x i8], [50 x i8]* %7, i64 0, i64 0
  %17 = ptrtoint i8* %15 to i64
  %18 = ptrtoint i8* %16 to i64
  %19 = sub i64 %17, %18
  %20 = call i32 (i8*, ...) @printf(i8* getelementptr inbounds ([3 x i8], [3 x i8]* @.str.1, i64 0, i64 0), i64 %19)
  ret i32 0
}

declare dso_local i32 @__isoc99_scanf(i8*, ...) #1

; Function Attrs: nounwind readonly
declare dso_local i8* @strstr(i8*, i8*) #2

declare dso_local i32 @printf(i8*, ...) #1


!llvm.module.flags = !{!0}
!llvm.ident = !{!1}

!0 = !{i32 1, !"wchar_size", i32 4}
!1 = !{!"clang version 10.0.0-4ubuntu1 "}
